target datalayout = "e-m:e-p270:32:32-p271:32:32-p272:64:64-i64:64-i128:128-f80:128-n8:16:32:64-S128"
target triple = "x86_64-pc-linux-gnu"

%struct.prov_cipher_ctx_st = type { [16 x i8], [16 x i8], [16 x i8], ptr, %union.anon, i32, i64, i64, i64, i64, i32, i8, i32, ptr, i32, i64, i32, i64, i32, ptr, ptr, ptr }
%union.anon = type { ptr }

@.str.1 = private unnamed_addr constant [60 x i8] c"../openssl/providers/implementations/ciphers/ciphercommon.c\00", align 1
@.str.7 = private unnamed_addr constant [7 x i8] c"keylen\00", align 1
@.str.9 = private unnamed_addr constant [6 x i8] c"ivlen\00", align 1
@__func__.ossl_cipher_generic_get_ctx_params = private unnamed_addr constant [35 x i8] c"ossl_cipher_generic_get_ctx_params\00", align 1
@.str.10 = private unnamed_addr constant [8 x i8] c"padding\00", align 1
@.str.11 = private unnamed_addr constant [3 x i8] c"iv\00", align 1
@.str.12 = private unnamed_addr constant [11 x i8] c"updated-iv\00", align 1
@.str.13 = private unnamed_addr constant [4 x i8] c"num\00", align 1
@.str.14 = private unnamed_addr constant [8 x i8] c"tls-mac\00", align 1

; Function Attrs: nounwind uwtable
define i32 @ossl_cipher_generic_get_ctx_params(ptr noundef %0, ptr noundef %1) #0 {
  %3 = alloca i32, align 4
  %4 = alloca ptr, align 8
  %5 = alloca ptr, align 8
  %6 = alloca ptr, align 8
  %7 = alloca ptr, align 8
  %8 = alloca i32, align 4
  store ptr %0, ptr %4, align 8, !tbaa !3
  store ptr %1, ptr %5, align 8, !tbaa !7
  call void @llvm.lifetime.start.p0(i64 8, ptr %6) #7
  %9 = load ptr, ptr %4, align 8, !tbaa !3
  store ptr %9, ptr %6, align 8, !tbaa !13
  call void @llvm.lifetime.start.p0(i64 8, ptr %7) #7
  %10 = load ptr, ptr %5, align 8, !tbaa !7
  %11 = call ptr @OSSL_PARAM_locate(ptr noundef %10, ptr noundef @.str.9)
  store ptr %11, ptr %7, align 8, !tbaa !7
  %12 = load ptr, ptr %7, align 8, !tbaa !7
  %13 = icmp ne ptr %12, null
  br i1 %13, label %14, label %22

14:                                               ; preds = %2
  %15 = load ptr, ptr %7, align 8, !tbaa !7
  %16 = load ptr, ptr %6, align 8, !tbaa !13
  %17 = getelementptr inbounds nuw %struct.prov_cipher_ctx_st, ptr %16, i32 0, i32 7
  %18 = load i64, ptr %17, align 8, !tbaa !28
  %19 = call i32 @OSSL_PARAM_set_size_t(ptr noundef %15, i64 noundef %18)
  %20 = icmp ne i32 %19, 0
  br i1 %20, label %22, label %21

21:                                               ; preds = %14
  call void @ERR_new()
  call void @ERR_set_debug(ptr noundef @.str.1, i32 noundef 606, ptr noundef @__func__.ossl_cipher_generic_get_ctx_params)
  call void (i32, i32, ptr, ...) @ERR_set_error(i32 noundef 57, i32 noundef 104, ptr noundef null)
  store i32 0, ptr %3, align 4
  store i32 1, ptr %8, align 4
  br label %128

22:                                               ; preds = %14, %2
  %23 = load ptr, ptr %5, align 8, !tbaa !7
  %24 = call ptr @OSSL_PARAM_locate(ptr noundef %23, ptr noundef @.str.10)
  store ptr %24, ptr %7, align 8, !tbaa !7
  %25 = load ptr, ptr %7, align 8, !tbaa !7
  %26 = icmp ne ptr %25, null
  br i1 %26, label %27, label %37

27:                                               ; preds = %22
  %28 = load ptr, ptr %7, align 8, !tbaa !7
  %29 = load ptr, ptr %6, align 8, !tbaa !13
  %30 = getelementptr inbounds nuw %struct.prov_cipher_ctx_st, ptr %29, i32 0, i32 11
  %31 = load i8, ptr %30, align 4
  %32 = and i8 %31, 1
  %33 = zext i8 %32 to i32
  %34 = call i32 @OSSL_PARAM_set_uint(ptr noundef %28, i32 noundef %33)
  %35 = icmp ne i32 %34, 0
  br i1 %35, label %37, label %36

36:                                               ; preds = %27
  call void @ERR_new()
  call void @ERR_set_debug(ptr noundef @.str.1, i32 noundef 611, ptr noundef @__func__.ossl_cipher_generic_get_ctx_params)
  call void (i32, i32, ptr, ...) @ERR_set_error(i32 noundef 57, i32 noundef 104, ptr noundef null)
  store i32 0, ptr %3, align 4
  store i32 1, ptr %8, align 4
  br label %128

37:                                               ; preds = %27, %22
  %38 = load ptr, ptr %5, align 8, !tbaa !7
  %39 = call ptr @OSSL_PARAM_locate(ptr noundef %38, ptr noundef @.str.11)
  store ptr %39, ptr %7, align 8, !tbaa !7
  %40 = load ptr, ptr %7, align 8, !tbaa !7
  %41 = icmp ne ptr %40, null
  br i1 %41, label %42, label %61

42:                                               ; preds = %37
  %43 = load ptr, ptr %7, align 8, !tbaa !7
  %44 = load ptr, ptr %6, align 8, !tbaa !13
  %45 = getelementptr inbounds nuw %struct.prov_cipher_ctx_st, ptr %44, i32 0, i32 0
  %46 = load ptr, ptr %6, align 8, !tbaa !13
  %47 = getelementptr inbounds nuw %struct.prov_cipher_ctx_st, ptr %46, i32 0, i32 7
  %48 = load i64, ptr %47, align 8, !tbaa !28
  %49 = call i32 @OSSL_PARAM_set_octet_ptr(ptr noundef %43, ptr noundef %45, i64 noundef %48)
  %50 = icmp ne i32 %49, 0
  br i1 %50, label %61, label %51

51:                                               ; preds = %42
  %52 = load ptr, ptr %7, align 8, !tbaa !7
  %53 = load ptr, ptr %6, align 8, !tbaa !13
  %54 = getelementptr inbounds nuw %struct.prov_cipher_ctx_st, ptr %53, i32 0, i32 0
  %55 = load ptr, ptr %6, align 8, !tbaa !13
  %56 = getelementptr inbounds nuw %struct.prov_cipher_ctx_st, ptr %55, i32 0, i32 7
  %57 = load i64, ptr %56, align 8, !tbaa !28
  %58 = call i32 @OSSL_PARAM_set_octet_string(ptr noundef %52, ptr noundef %54, i64 noundef %57)
  %59 = icmp ne i32 %58, 0
  br i1 %59, label %61, label %60

60:                                               ; preds = %51
  call void @ERR_new()
  call void @ERR_set_debug(ptr noundef @.str.1, i32 noundef 618, ptr noundef @__func__.ossl_cipher_generic_get_ctx_params)
  call void (i32, i32, ptr, ...) @ERR_set_error(i32 noundef 57, i32 noundef 104, ptr noundef null)
  store i32 0, ptr %3, align 4
  store i32 1, ptr %8, align 4
  br label %128

61:                                               ; preds = %51, %42, %37
  %62 = load ptr, ptr %5, align 8, !tbaa !7
  %63 = call ptr @OSSL_PARAM_locate(ptr noundef %62, ptr noundef @.str.12)
  store ptr %63, ptr %7, align 8, !tbaa !7
  %64 = load ptr, ptr %7, align 8, !tbaa !7
  %65 = icmp ne ptr %64, null
  br i1 %65, label %66, label %85

66:                                               ; preds = %61
  %67 = load ptr, ptr %7, align 8, !tbaa !7
  %68 = load ptr, ptr %6, align 8, !tbaa !13
  %69 = getelementptr inbounds nuw %struct.prov_cipher_ctx_st, ptr %68, i32 0, i32 2
  %70 = load ptr, ptr %6, align 8, !tbaa !13
  %71 = getelementptr inbounds nuw %struct.prov_cipher_ctx_st, ptr %70, i32 0, i32 7
  %72 = load i64, ptr %71, align 8, !tbaa !28
  %73 = call i32 @OSSL_PARAM_set_octet_ptr(ptr noundef %67, ptr noundef %69, i64 noundef %72)
  %74 = icmp ne i32 %73, 0
  br i1 %74, label %85, label %75

75:                                               ; preds = %66
  %76 = load ptr, ptr %7, align 8, !tbaa !7
  %77 = load ptr, ptr %6, align 8, !tbaa !13
  %78 = getelementptr inbounds nuw %struct.prov_cipher_ctx_st, ptr %77, i32 0, i32 2
  %79 = load ptr, ptr %6, align 8, !tbaa !13
  %80 = getelementptr inbounds nuw %struct.prov_cipher_ctx_st, ptr %79, i32 0, i32 7
  %81 = load i64, ptr %80, align 8, !tbaa !28
  %82 = call i32 @OSSL_PARAM_set_octet_string(ptr noundef %76, ptr noundef %78, i64 noundef %81)
  %83 = icmp ne i32 %82, 0
  br i1 %83, label %85, label %84

84:                                               ; preds = %75
  call void @ERR_new()
  call void @ERR_set_debug(ptr noundef @.str.1, i32 noundef 625, ptr noundef @__func__.ossl_cipher_generic_get_ctx_params)
  call void (i32, i32, ptr, ...) @ERR_set_error(i32 noundef 57, i32 noundef 104, ptr noundef null)
  store i32 0, ptr %3, align 4
  store i32 1, ptr %8, align 4
  br label %128

85:                                               ; preds = %75, %66, %61
  %86 = load ptr, ptr %5, align 8, !tbaa !7
  %87 = call ptr @OSSL_PARAM_locate(ptr noundef %86, ptr noundef @.str.13)
  store ptr %87, ptr %7, align 8, !tbaa !7
  %88 = load ptr, ptr %7, align 8, !tbaa !7
  %89 = icmp ne ptr %88, null
  br i1 %89, label %90, label %98

90:                                               ; preds = %85
  %91 = load ptr, ptr %7, align 8, !tbaa !7
  %92 = load ptr, ptr %6, align 8, !tbaa !13
  %93 = getelementptr inbounds nuw %struct.prov_cipher_ctx_st, ptr %92, i32 0, i32 18
  %94 = load i32, ptr %93, align 8, !tbaa !22
  %95 = call i32 @OSSL_PARAM_set_uint(ptr noundef %91, i32 noundef %94)
  %96 = icmp ne i32 %95, 0
  br i1 %96, label %98, label %97

97:                                               ; preds = %90
  call void @ERR_new()
  call void @ERR_set_debug(ptr noundef @.str.1, i32 noundef 630, ptr noundef @__func__.ossl_cipher_generic_get_ctx_params)
  call void (i32, i32, ptr, ...) @ERR_set_error(i32 noundef 57, i32 noundef 104, ptr noundef null)
  store i32 0, ptr %3, align 4
  store i32 1, ptr %8, align 4
  br label %128

98:                                               ; preds = %90, %85
  %99 = load ptr, ptr %5, align 8, !tbaa !7
  %100 = call ptr @OSSL_PARAM_locate(ptr noundef %99, ptr noundef @.str.7)
  store ptr %100, ptr %7, align 8, !tbaa !7
  %101 = load ptr, ptr %7, align 8, !tbaa !7
  %102 = icmp ne ptr %101, null
  br i1 %102, label %103, label %111

103:                                              ; preds = %98
  %104 = load ptr, ptr %7, align 8, !tbaa !7
  %105 = load ptr, ptr %6, align 8, !tbaa !13
  %106 = getelementptr inbounds nuw %struct.prov_cipher_ctx_st, ptr %105, i32 0, i32 6
  %107 = load i64, ptr %106, align 8, !tbaa !15
  %108 = call i32 @OSSL_PARAM_set_size_t(ptr noundef %104, i64 noundef %107)
  %109 = icmp ne i32 %108, 0
  br i1 %109, label %111, label %110

110:                                              ; preds = %103
  call void @ERR_new()
  call void @ERR_set_debug(ptr noundef @.str.1, i32 noundef 635, ptr noundef @__func__.ossl_cipher_generic_get_ctx_params)
  call void (i32, i32, ptr, ...) @ERR_set_error(i32 noundef 57, i32 noundef 104, ptr noundef null)
  store i32 0, ptr %3, align 4
  store i32 1, ptr %8, align 4
  br label %128

111:                                              ; preds = %103, %98
  %112 = load ptr, ptr %5, align 8, !tbaa !7
  %113 = call ptr @OSSL_PARAM_locate(ptr noundef %112, ptr noundef @.str.14)
  store ptr %113, ptr %7, align 8, !tbaa !7
  %114 = load ptr, ptr %7, align 8, !tbaa !7
  %115 = icmp ne ptr %114, null
  br i1 %115, label %116, label %127

116:                                              ; preds = %111
  %117 = load ptr, ptr %7, align 8, !tbaa !7
  %118 = load ptr, ptr %6, align 8, !tbaa !13
  %119 = getelementptr inbounds nuw %struct.prov_cipher_ctx_st, ptr %118, i32 0, i32 13
  %120 = load ptr, ptr %119, align 8, !tbaa !24
  %121 = load ptr, ptr %6, align 8, !tbaa !13
  %122 = getelementptr inbounds nuw %struct.prov_cipher_ctx_st, ptr %121, i32 0, i32 15
  %123 = load i64, ptr %122, align 8, !tbaa !46
  %124 = call i32 @OSSL_PARAM_set_octet_ptr(ptr noundef %117, ptr noundef %120, i64 noundef %123)
  %125 = icmp ne i32 %124, 0
  br i1 %125, label %127, label %126

126:                                              ; preds = %116
  call void @ERR_new()
  call void @ERR_set_debug(ptr noundef @.str.1, i32 noundef 641, ptr noundef @__func__.ossl_cipher_generic_get_ctx_params)
  call void (i32, i32, ptr, ...) @ERR_set_error(i32 noundef 57, i32 noundef 104, ptr noundef null)
  store i32 0, ptr %3, align 4
  store i32 1, ptr %8, align 4
  br label %128

127:                                              ; preds = %116, %111
  store i32 1, ptr %3, align 4
  store i32 1, ptr %8, align 4
  br label %128

128:                                              ; preds = %127, %126, %110, %97, %84, %60, %36, %21
  call void @llvm.lifetime.end.p0(i64 8, ptr %7) #7
  call void @llvm.lifetime.end.p0(i64 8, ptr %6) #7
  %129 = load i32, ptr %3, align 4
  ret i32 %129
}