; Function Attrs: nounwind uwtable
define range(i32 0, 2) i32 @ossl_cipher_generic_get_ctx_params(ptr noundef %0, ptr noundef %1) local_unnamed_addr #1 {
  %3 = tail call ptr @OSSL_PARAM_locate(ptr noundef %1, ptr noundef nonnull @.str.9) #6
  %.not = icmp eq ptr %3, null
  br i1 %.not, label %8, label %4

4:                                                ; preds = %2
  %5 = getelementptr inbounds nuw i8, ptr %0, i64 80
  %6 = load i64, ptr %5, align 8, !tbaa !22
  %7 = tail call i32 @OSSL_PARAM_set_size_t(ptr noundef nonnull %3, i64 noundef %6) #6
  %.not45 = icmp eq i32 %7, 0
  br i1 %.not45, label %.sink.split, label %8

8:                                                ; preds = %4, %2
  %9 = tail call ptr @OSSL_PARAM_locate(ptr noundef %1, ptr noundef nonnull @.str.10) #6
  %.not46 = icmp eq ptr %9, null
  br i1 %.not46, label %16, label %10

10:                                               ; preds = %8
  %11 = getelementptr inbounds nuw i8, ptr %0, i64 108
  %12 = load i8, ptr %11, align 4
  %13 = and i8 %12, 1
  %14 = zext nneg i8 %13 to i32
  %15 = tail call i32 @OSSL_PARAM_set_uint(ptr noundef nonnull %9, i32 noundef %14) #6
  %.not47 = icmp eq i32 %15, 0
  br i1 %.not47, label %.sink.split, label %16

16:                                               ; preds = %10, %8
  %17 = tail call ptr @OSSL_PARAM_locate(ptr noundef %1, ptr noundef nonnull @.str.11) #6
  %.not48 = icmp eq ptr %17, null
  br i1 %.not48, label %25, label %18

18:                                               ; preds = %16
  %19 = getelementptr inbounds nuw i8, ptr %0, i64 80
  %20 = load i64, ptr %19, align 8, !tbaa !22
  %21 = tail call i32 @OSSL_PARAM_set_octet_ptr(ptr noundef nonnull %17, ptr noundef %0, i64 noundef %20) #6
  %.not49 = icmp eq i32 %21, 0
  br i1 %.not49, label %22, label %25

22:                                               ; preds = %18
  %23 = load i64, ptr %19, align 8, !tbaa !22
  %24 = tail call i32 @OSSL_PARAM_set_octet_string(ptr noundef nonnull %17, ptr noundef nonnull %0, i64 noundef %23) #6
  %.not50 = icmp eq i32 %24, 0
  br i1 %.not50, label %.sink.split, label %25

25:                                               ; preds = %22, %18, %16
  %26 = tail call ptr @OSSL_PARAM_locate(ptr noundef %1, ptr noundef nonnull @.str.12) #6
  %.not51 = icmp eq ptr %26, null
  br i1 %.not51, label %35, label %27

27:                                               ; preds = %25
  %28 = getelementptr inbounds nuw i8, ptr %0, i64 32
  %29 = getelementptr inbounds nuw i8, ptr %0, i64 80
  %30 = load i64, ptr %29, align 8, !tbaa !22
  %31 = tail call i32 @OSSL_PARAM_set_octet_ptr(ptr noundef nonnull %26, ptr noundef nonnull %28, i64 noundef %30) #6
  %.not52 = icmp eq i32 %31, 0
  br i1 %.not52, label %32, label %35

32:                                               ; preds = %27
  %33 = load i64, ptr %29, align 8, !tbaa !22
  %34 = tail call i32 @OSSL_PARAM_set_octet_string(ptr noundef nonnull %26, ptr noundef nonnull %28, i64 noundef %33) #6
  %.not53 = icmp eq i32 %34, 0
  br i1 %.not53, label %.sink.split, label %35

35:                                               ; preds = %32, %27, %25
  %36 = tail call ptr @OSSL_PARAM_locate(ptr noundef %1, ptr noundef nonnull @.str.13) #6
  %.not54 = icmp eq ptr %36, null
  br i1 %.not54, label %41, label %37

37:                                               ; preds = %35
  %38 = getelementptr inbounds nuw i8, ptr %0, i64 160
  %39 = load i32, ptr %38, align 8, !tbaa !17
  %40 = tail call i32 @OSSL_PARAM_set_uint(ptr noundef nonnull %36, i32 noundef %39) #6
  %.not55 = icmp eq i32 %40, 0
  br i1 %.not55, label %.sink.split, label %41

41:                                               ; preds = %37, %35
  %42 = tail call ptr @OSSL_PARAM_locate(ptr noundef %1, ptr noundef nonnull @.str.7) #6
  %.not56 = icmp eq ptr %42, null
  br i1 %.not56, label %47, label %43

43:                                               ; preds = %41
  %44 = getelementptr inbounds nuw i8, ptr %0, i64 72
  %45 = load i64, ptr %44, align 8, !tbaa !11
  %46 = tail call i32 @OSSL_PARAM_set_size_t(ptr noundef nonnull %42, i64 noundef %45) #6
  %.not57 = icmp eq i32 %46, 0
  br i1 %.not57, label %.sink.split, label %47

47:                                               ; preds = %43, %41
  %48 = tail call ptr @OSSL_PARAM_locate(ptr noundef %1, ptr noundef nonnull @.str.14) #6
  %.not58 = icmp eq ptr %48, null
  br i1 %.not58, label %55, label %49

49:                                               ; preds = %47
  %50 = getelementptr inbounds nuw i8, ptr %0, i64 120
  %51 = load ptr, ptr %50, align 8, !tbaa !19
  %52 = getelementptr inbounds nuw i8, ptr %0, i64 136
  %53 = load i64, ptr %52, align 8, !tbaa !37
  %54 = tail call i32 @OSSL_PARAM_set_octet_ptr(ptr noundef nonnull %48, ptr noundef %51, i64 noundef %53) #6
  %.not59 = icmp eq i32 %54, 0
  br i1 %.not59, label %.sink.split, label %55

.sink.split:                                      ; preds = %49, %43, %37, %32, %22, %10, %4
  %.sink = phi i32 [ 606, %4 ], [ 611, %10 ], [ 618, %22 ], [ 625, %32 ], [ 630, %37 ], [ 635, %43 ], [ 641, %49 ]
  tail call void @ERR_new() #6
  tail call void @ERR_set_debug(ptr noundef nonnull @.str.1, i32 noundef %.sink, ptr noundef nonnull @__func__.ossl_cipher_generic_get_ctx_params) #6
  tail call void (i32, i32, ptr, ...) @ERR_set_error(i32 noundef 57, i32 noundef 104, ptr noundef null) #6
  br label %55

55:                                               ; preds = %.sink.split, %47, %49
  %.0 = phi i32 [ 1, %49 ], [ 1, %47 ], [ 0, %.sink.split ]
  ret i32 %.0
}